; ModuleID = '32/66.c'
source_filename = "32/66.c"
target datalayout = "e-m:e-p270:32:32-p271:32:32-p272:64:64-i64:64-f80:128-n8:16:32:64-S128"
target triple = "x86_64-pc-linux-gnu"

%struct.minus = type { [100 x i8], [100 x i8] }

@.str = private unnamed_addr constant [3 x i8] c"%d\00", align 1
@.str.1 = private unnamed_addr constant [3 x i8] c"%s\00", align 1
@.str.2 = private unnamed_addr constant [2 x i8] c"\0A\00", align 1

; Function Attrs: noinline nounwind uwtable
define dso_local i32 @main() #0 {
  %1 = alloca i32, align 4
  %2 = alloca [100 x %struct.minus], align 16
  %3 = alloca i32, align 4
  %4 = alloca i32, align 4
  %5 = alloca i32, align 4
  %6 = alloca i32, align 4
  %7 = alloca i32, align 4
  %8 = alloca i32, align 4
  %9 = alloca [100 x i8], align 16
  %10 = alloca i8, align 1
  store i32 0, i32* %1, align 4
  %11 = call i32 (i8*, ...) @__isoc99_scanf(i8* getelementptr inbounds ([3 x i8], [3 x i8]* @.str, i64 0, i64 0), i32* %3)
  store i32 0, i32* %4, align 4
  br label %12

12:                                               ; preds = %30, %0
  %13 = load i32, i32* %4, align 4
  %14 = load i32, i32* %3, align 4
  %15 = icmp slt i32 %13, %14
  br i1 %15, label %16, label %33

16:                                               ; preds = %12
  %17 = load i32, i32* %4, align 4
  %18 = sext i32 %17 to i64
  %19 = getelementptr inbounds [100 x %struct.minus], [100 x %struct.minus]* %2, i64 0, i64 %18
  %20 = getelementptr inbounds %struct.minus, %struct.minus* %19, i32 0, i32 0
  %21 = getelementptr inbounds [100 x i8], [100 x i8]* %20, i64 0, i64 0
  %22 = call i32 (i8*, ...) @__isoc99_scanf(i8* getelementptr inbounds ([3 x i8], [3 x i8]* @.str.1, i64 0, i64 0), i8* %21)
  %23 = load i32, i32* %4, align 4
  %24 = sext i32 %23 to i64
  %25 = getelementptr inbounds [100 x %struct.minus], [100 x %struct.minus]* %2, i64 0, i64 %24
  %26 = getelementptr inbounds %struct.minus, %struct.minus* %25, i32 0, i32 1
  %27 = getelementptr inbounds [100 x i8], [100 x i8]* %26, i64 0, i64 0
  %28 = call i32 (i8*, ...) @__isoc99_scanf(i8* getelementptr inbounds ([3 x i8], [3 x i8]* @.str.1, i64 0, i64 0), i8* %27)
  %29 = call i32 (i8*, ...) @printf(i8* getelementptr inbounds ([2 x i8], [2 x i8]* @.str.2, i64 0, i64 0))
  br label %30

30:                                               ; preds = %16
  %31 = load i32, i32* %4, align 4
  %32 = add nsw i32 %31, 1
  store i32 %32, i32* %4, align 4
  br label %12

33:                                               ; preds = %12
  store i32 0, i32* %4, align 4
  br label %34

34:                                               ; preds = %159, %33
  %35 = load i32, i32* %4, align 4
  %36 = load i32, i32* %3, align 4
  %37 = icmp slt i32 %35, %36
  br i1 %37, label %38, label %162

38:                                               ; preds = %34
  %39 = load i32, i32* %4, align 4
  %40 = sext i32 %39 to i64
  %41 = getelementptr inbounds [100 x %struct.minus], [100 x %struct.minus]* %2, i64 0, i64 %40
  %42 = getelementptr inbounds %struct.minus, %struct.minus* %41, i32 0, i32 0
  %43 = getelementptr inbounds [100 x i8], [100 x i8]* %42, i64 0, i64 0
  %44 = call i64 @strlen(i8* %43) #3
  %45 = trunc i64 %44 to i32
  store i32 %45, i32* %5, align 4
  %46 = load i32, i32* %4, align 4
  %47 = sext i32 %46 to i64
  %48 = getelementptr inbounds [100 x %struct.minus], [100 x %struct.minus]* %2, i64 0, i64 %47
  %49 = getelementptr inbounds %struct.minus, %struct.minus* %48, i32 0, i32 1
  %50 = getelementptr inbounds [100 x i8], [100 x i8]* %49, i64 0, i64 0
  %51 = call i64 @strlen(i8* %50) #3
  %52 = trunc i64 %51 to i32
  store i32 %52, i32* %6, align 4
  %53 = load i32, i32* %5, align 4
  %54 = sub nsw i32 %53, 1
  store i32 %54, i32* %7, align 4
  %55 = load i32, i32* %6, align 4
  %56 = sub nsw i32 %55, 1
  store i32 %56, i32* %8, align 4
  br label %57

57:                                               ; preds = %125, %38
  %58 = load i32, i32* %7, align 4
  %59 = load i32, i32* %5, align 4
  %60 = load i32, i32* %6, align 4
  %61 = sub nsw i32 %59, %60
  %62 = icmp sge i32 %58, %61
  %63 = zext i1 %62 to i32
  %64 = load i32, i32* %8, align 4
  %65 = icmp sge i32 %64, 0
  br i1 %65, label %66, label %130

66:                                               ; preds = %57
  %67 = load i32, i32* %4, align 4
  %68 = sext i32 %67 to i64
  %69 = getelementptr inbounds [100 x %struct.minus], [100 x %struct.minus]* %2, i64 0, i64 %68
  %70 = getelementptr inbounds %struct.minus, %struct.minus* %69, i32 0, i32 0
  %71 = load i32, i32* %7, align 4
  %72 = sext i32 %71 to i64
  %73 = getelementptr inbounds [100 x i8], [100 x i8]* %70, i64 0, i64 %72
  %74 = load i8, i8* %73, align 1
  %75 = sext i8 %74 to i32
  %76 = load i32, i32* %4, align 4
  %77 = sext i32 %76 to i64
  %78 = getelementptr inbounds [100 x %struct.minus], [100 x %struct.minus]* %2, i64 0, i64 %77
  %79 = getelementptr inbounds %struct.minus, %struct.minus* %78, i32 0, i32 1
  %80 = load i32, i32* %8, align 4
  %81 = sext i32 %80 to i64
  %82 = getelementptr inbounds [100 x i8], [100 x i8]* %79, i64 0, i64 %81
  %83 = load i8, i8* %82, align 1
  %84 = sext i8 %83 to i32
  %85 = sub nsw i32 %75, %84
  %86 = add nsw i32 %85, 48
  %87 = trunc i32 %86 to i8
  store i8 %87, i8* %10, align 1
  %88 = load i8, i8* %10, align 1
  %89 = sext i8 %88 to i32
  %90 = icmp sge i32 %89, 48
  br i1 %90, label %91, label %96

91:                                               ; preds = %66
  %92 = load i8, i8* %10, align 1
  %93 = load i32, i32* %7, align 4
  %94 = sext i32 %93 to i64
  %95 = getelementptr inbounds [100 x i8], [100 x i8]* %9, i64 0, i64 %94
  store i8 %92, i8* %95, align 1
  br label %124

96:                                               ; preds = %66
  %97 = load i8, i8* %10, align 1
  %98 = sext i8 %97 to i32
  %99 = add nsw i32 10, %98
  %100 = trunc i32 %99 to i8
  %101 = load i32, i32* %7, align 4
  %102 = sext i32 %101 to i64
  %103 = getelementptr inbounds [100 x i8], [100 x i8]* %9, i64 0, i64 %102
  store i8 %100, i8* %103, align 1
  %104 = load i32, i32* %4, align 4
  %105 = sext i32 %104 to i64
  %106 = getelementptr inbounds [100 x %struct.minus], [100 x %struct.minus]* %2, i64 0, i64 %105
  %107 = getelementptr inbounds %struct.minus, %struct.minus* %106, i32 0, i32 0
  %108 = load i32, i32* %7, align 4
  %109 = sub nsw i32 %108, 1
  %110 = sext i32 %109 to i64
  %111 = getelementptr inbounds [100 x i8], [100 x i8]* %107, i64 0, i64 %110
  %112 = load i8, i8* %111, align 1
  %113 = sext i8 %112 to i32
  %114 = sub nsw i32 %113, 1
  %115 = trunc i32 %114 to i8
  %116 = load i32, i32* %4, align 4
  %117 = sext i32 %116 to i64
  %118 = getelementptr inbounds [100 x %struct.minus], [100 x %struct.minus]* %2, i64 0, i64 %117
  %119 = getelementptr inbounds %struct.minus, %struct.minus* %118, i32 0, i32 0
  %120 = load i32, i32* %7, align 4
  %121 = sub nsw i32 %120, 1
  %122 = sext i32 %121 to i64
  %123 = getelementptr inbounds [100 x i8], [100 x i8]* %119, i64 0, i64 %122
  store i8 %115, i8* %123, align 1
  br label %124

124:                                              ; preds = %96, %91
  br label %125

125:                                              ; preds = %124
  %126 = load i32, i32* %7, align 4
  %127 = add nsw i32 %126, -1
  store i32 %127, i32* %7, align 4
  %128 = load i32, i32* %8, align 4
  %129 = add nsw i32 %128, -1
  store i32 %129, i32* %8, align 4
  br label %57

130:                                              ; preds = %57
  store i32 0, i32* %7, align 4
  br label %131

131:                                              ; preds = %149, %130
  %132 = load i32, i32* %7, align 4
  %133 = load i32, i32* %5, align 4
  %134 = load i32, i32* %6, align 4
  %135 = sub nsw i32 %133, %134
  %136 = icmp slt i32 %132, %135
  br i1 %136, label %137, label %152

137:                                              ; preds = %131
  %138 = load i32, i32* %4, align 4
  %139 = sext i32 %138 to i64
  %140 = getelementptr inbounds [100 x %struct.minus], [100 x %struct.minus]* %2, i64 0, i64 %139
  %141 = getelementptr inbounds %struct.minus, %struct.minus* %140, i32 0, i32 0
  %142 = load i32, i32* %7, align 4
  %143 = sext i32 %142 to i64
  %144 = getelementptr inbounds [100 x i8], [100 x i8]* %141, i64 0, i64 %143
  %145 = load i8, i8* %144, align 1
  %146 = load i32, i32* %7, align 4
  %147 = sext i32 %146 to i64
  %148 = getelementptr inbounds [100 x i8], [100 x i8]* %9, i64 0, i64 %147
  store i8 %145, i8* %148, align 1
  br label %149

149:                                              ; preds = %137
  %150 = load i32, i32* %7, align 4
  %151 = add nsw i32 %150, 1
  store i32 %151, i32* %7, align 4
  br label %131

152:                                              ; preds = %131
  %153 = load i32, i32* %5, align 4
  %154 = sext i32 %153 to i64
  %155 = getelementptr inbounds [100 x i8], [100 x i8]* %9, i64 0, i64 %154
  store i8 0, i8* %155, align 1
  %156 = getelementptr inbounds [100 x i8], [100 x i8]* %9, i64 0, i64 0
  %157 = call i32 (i8*, ...) @printf(i8* getelementptr inbounds ([3 x i8], [3 x i8]* @.str.1, i64 0, i64 0), i8* %156)
  %158 = call i32 (i8*, ...) @printf(i8* getelementptr inbounds ([2 x i8], [2 x i8]* @.str.2, i64 0, i64 0))
  br label %159

159:                                              ; preds = %152
  %160 = load i32, i32* %4, align 4
  %161 = add nsw i32 %160, 1
  store i32 %161, i32* %4, align 4
  br label %34

162:                                              ; preds = %34
  ret i32 0
}

declare dso_local i32 @__isoc99_scanf(i8*, ...) #1

declare dso_local i32 @printf(i8*, ...) #1

; Function Attrs: nounwind readonly
declare dso_local i64 @strlen(i8*) #2


!llvm.module.flags = !{!0}
!llvm.ident = !{!1}

!0 = !{i32 1, !"wchar_size", i32 4}
!1 = !{!"clang version 10.0.0-4ubuntu1 "}
